target datalayout = "e-m:e-p270:32:32-p271:32:32-p272:64:64-i64:64-i128:128-f80:128-n8:16:32:64-S128"
target triple = "x86_64-pc-linux-gnu"

%struct.ObjectAddress = type { i32, i32, i32 }
%struct.nameData = type { [64 x i8] }
%struct.FormData_pg_class = type { i32, %struct.nameData, i32, i32, i32, i32, i32, i32, i32, i32, float, i32, i32, i8, i8, i8, i8, i16, i16, i8, i8, i8, i8, i8, i8, i8, i8, i32, i32, i32 }
%struct.HeapTupleData = type { i32, %struct.ItemPointerData, i32, ptr }
%struct.ItemPointerData = type { %struct.BlockIdData, i16 }
%struct.BlockIdData = type { i16, i16 }
%struct.HeapTupleHeaderData = type { %union.anon, %struct.ItemPointerData, i16, i16, i8, [0 x i8] }
%union.anon = type { %struct.HeapTupleFields }
%struct.HeapTupleFields = type { i32, i32, %union.anon.0 }
%union.anon.0 = type { i32 }

@.str.2 = private unnamed_addr constant [12 x i8] c"tablecmds.c\00", align 1
@.str.23 = private unnamed_addr constant [36 x i8] c"cache lookup failed for relation %u\00", align 1
@object_access_hook = external global ptr, align 8
@__func__.AlterRelationNamespaceInternal = private unnamed_addr constant [31 x i8] c"AlterRelationNamespaceInternal\00", align 1
@.str.52 = private unnamed_addr constant [44 x i8] c"relation \22%s\22 already exists in schema \22%s\22\00", align 1
@.str.53 = private unnamed_addr constant [53 x i8] c"could not change schema dependency for relation \22%s\22\00", align 1

; Function Attrs: inlinehint nounwind uwtable
define internal ptr @GETSTRUCT(ptr noundef %0) #6 {
  %2 = alloca ptr, align 8
  store ptr %0, ptr %2, align 8
  %3 = load ptr, ptr %2, align 8
  %4 = getelementptr inbounds nuw %struct.HeapTupleData, ptr %3, i32 0, i32 3
  %5 = load ptr, ptr %4, align 8
  %6 = load ptr, ptr %2, align 8
  %7 = getelementptr inbounds nuw %struct.HeapTupleData, ptr %6, i32 0, i32 3
  %8 = load ptr, ptr %7, align 8
  %9 = getelementptr inbounds nuw %struct.HeapTupleHeaderData, ptr %8, i32 0, i32 4
  %10 = load i8, ptr %9, align 2
  %11 = zext i8 %10 to i32
  %12 = sext i32 %11 to i64
  %13 = getelementptr inbounds i8, ptr %5, i64 %12
  ret ptr %13
}

; Function Attrs: inlinehint nounwind uwtable
define internal i64 @ObjectIdGetDatum(i32 noundef %0) #6 {
  %2 = alloca i32, align 4
  store i32 %0, ptr %2, align 4
  %3 = load i32, ptr %2, align 4
  %4 = zext i32 %3 to i64
  ret i64 %4
}

; Function Attrs: nounwind uwtable
define dso_local void @AlterRelationNamespaceInternal(ptr noundef %0, i32 noundef %1, i32 noundef %2, i32 noundef %3, i1 noundef zeroext %4, ptr noundef %5) #0 {
  %7 = alloca ptr, align 8
  %8 = alloca i32, align 4
  %9 = alloca i32, align 4
  %10 = alloca i32, align 4
  %11 = alloca i8, align 1
  %12 = alloca ptr, align 8
  %13 = alloca ptr, align 8
  %14 = alloca ptr, align 8
  %15 = alloca %struct.ObjectAddress, align 4
  %16 = alloca i8, align 1
  %17 = alloca %struct.ItemPointerData, align 2
  store ptr %0, ptr %7, align 8
  store i32 %1, ptr %8, align 4
  store i32 %2, ptr %9, align 4
  store i32 %3, ptr %10, align 4
  %18 = zext i1 %4 to i8
  store i8 %18, ptr %11, align 1
  store ptr %5, ptr %12, align 8
  call void @llvm.lifetime.start.p0(i64 8, ptr %13) #12
  call void @llvm.lifetime.start.p0(i64 8, ptr %14) #12
  call void @llvm.lifetime.start.p0(i64 12, ptr %15) #12
  call void @llvm.lifetime.start.p0(i64 1, ptr %16) #12
  store i8 0, ptr %16, align 1
  %19 = load i32, ptr %8, align 4
  %20 = call i64 @ObjectIdGetDatum(i32 noundef %19)
  %21 = call ptr @SearchSysCacheLockedCopy1(i32 noundef 57, i64 noundef %20)
  store ptr %21, ptr %13, align 8
  %22 = load ptr, ptr %13, align 8
  %23 = icmp ne ptr %22, null
  br i1 %23, label %36, label %24

24:                                               ; preds = %6
  br label %25

25:                                               ; preds = %24
  br i1 true, label %26, label %28

26:                                               ; preds = %25
  %27 = call zeroext i1 @errstart_cold(i32 noundef 21, ptr noundef null) #13
  br i1 %27, label %30, label %33

28:                                               ; preds = %25
  %29 = call zeroext i1 @errstart(i32 noundef 21, ptr noundef null)
  br i1 %29, label %30, label %33

30:                                               ; preds = %28, %26
  %31 = load i32, ptr %8, align 4
  %32 = call i32 (ptr, ...) @errmsg_internal(ptr noundef @.str.23, i32 noundef %31)
  call void @errfinish(ptr noundef @.str.2, i32 noundef 18130, ptr noundef @__func__.AlterRelationNamespaceInternal)
  br label %33

33:                                               ; preds = %30, %28, %26
  unreachable

34:                                               ; No predecessors!
  br label %35

35:                                               ; preds = %34
  br label %36

36:                                               ; preds = %35, %6
  %37 = load ptr, ptr %13, align 8
  %38 = call ptr @GETSTRUCT(ptr noundef %37)
  store ptr %38, ptr %14, align 8
  %39 = getelementptr inbounds nuw %struct.ObjectAddress, ptr %15, i32 0, i32 0
  store i32 1259, ptr %39, align 4
  %40 = load i32, ptr %8, align 4
  %41 = getelementptr inbounds nuw %struct.ObjectAddress, ptr %15, i32 0, i32 1
  store i32 %40, ptr %41, align 4
  %42 = getelementptr inbounds nuw %struct.ObjectAddress, ptr %15, i32 0, i32 2
  store i32 0, ptr %42, align 4
  %43 = load ptr, ptr %12, align 8
  %44 = call zeroext i1 @object_address_present(ptr noundef %15, ptr noundef %43)
  %45 = zext i1 %44 to i8
  store i8 %45, ptr %16, align 1
  %46 = load i8, ptr %16, align 1, !range !6, !noundef !7
  %47 = trunc i8 %46 to i1
  br i1 %47, label %111, label %48

48:                                               ; preds = %36
  %49 = load i32, ptr %9, align 4
  %50 = load i32, ptr %10, align 4
  %51 = icmp ne i32 %49, %50
  br i1 %51, label %52, label %111

52:                                               ; preds = %48
  call void @llvm.lifetime.start.p0(i64 6, ptr %17) #12
  %53 = load ptr, ptr %13, align 8
  %54 = getelementptr inbounds nuw %struct.HeapTupleData, ptr %53, i32 0, i32 1
  call void @llvm.memcpy.p0.p0.i64(ptr align 2 %17, ptr align 4 %54, i64 6, i1 false)
  %55 = load ptr, ptr %14, align 8
  %56 = getelementptr inbounds nuw %struct.FormData_pg_class, ptr %55, i32 0, i32 1
  %57 = getelementptr inbounds nuw %struct.nameData, ptr %56, i32 0, i32 0
  %58 = getelementptr inbounds [64 x i8], ptr %57, i64 0, i64 0
  %59 = load i32, ptr %10, align 4
  %60 = call i32 @get_relname_relid(ptr noundef %58, i32 noundef %59)
  %61 = icmp ne i32 %60, 0
  br i1 %61, label %62, label %80

62:                                               ; preds = %52
  br label %63

63:                                               ; preds = %62
  br i1 true, label %64, label %66

64:                                               ; preds = %63
  %65 = call zeroext i1 @errstart_cold(i32 noundef 21, ptr noundef null) #13
  br i1 %65, label %68, label %77

66:                                               ; preds = %63
  %67 = call zeroext i1 @errstart(i32 noundef 21, ptr noundef null)
  br i1 %67, label %68, label %77

68:                                               ; preds = %66, %64
  %69 = call i32 @errcode(i32 noundef 117571716)
  %70 = load ptr, ptr %14, align 8
  %71 = getelementptr inbounds nuw %struct.FormData_pg_class, ptr %70, i32 0, i32 1
  %72 = getelementptr inbounds nuw %struct.nameData, ptr %71, i32 0, i32 0
  %73 = getelementptr inbounds [64 x i8], ptr %72, i64 0, i64 0
  %74 = load i32, ptr %10, align 4
  %75 = call ptr @get_namespace_name(i32 noundef %74)
  %76 = call i32 (ptr, ...) @errmsg(ptr noundef @.str.52, ptr noundef %73, ptr noundef %75)
  call void @errfinish(ptr noundef @.str.2, i32 noundef 18156, ptr noundef @__func__.AlterRelationNamespaceInternal)
  br label %77

77:                                               ; preds = %68, %66, %64
  unreachable

78:                                               ; No predecessors!
  br label %79

79:                                               ; preds = %78
  br label %80

80:                                               ; preds = %79, %52
  %81 = load i32, ptr %10, align 4
  %82 = load ptr, ptr %14, align 8
  %83 = getelementptr inbounds nuw %struct.FormData_pg_class, ptr %82, i32 0, i32 2
  store i32 %81, ptr %83, align 4
  %84 = load ptr, ptr %7, align 8
  %85 = load ptr, ptr %13, align 8
  call void @CatalogTupleUpdate(ptr noundef %84, ptr noundef %17, ptr noundef %85)
  %86 = load ptr, ptr %7, align 8
  call void @UnlockTuple(ptr noundef %86, ptr noundef %17, i32 noundef 7)
  %87 = load i8, ptr %11, align 1, !range !6, !noundef !7
  %88 = trunc i8 %87 to i1
  br i1 %88, label %89, label %110

89:                                               ; preds = %80
  %90 = load i32, ptr %8, align 4
  %91 = load i32, ptr %9, align 4
  %92 = load i32, ptr %10, align 4
  %93 = call i64 @changeDependencyFor(i32 noundef 1259, i32 noundef %90, i32 noundef 2615, i32 noundef %91, i32 noundef %92)
  %94 = icmp ne i64 %93, 1
  br i1 %94, label %95, label %110

95:                                               ; preds = %89
  br label %96

96:                                               ; preds = %95
  br i1 true, label %97, label %99

97:                                               ; preds = %96
  %98 = call zeroext i1 @errstart_cold(i32 noundef 21, ptr noundef null) #13
  br i1 %98, label %101, label %107

99:                                               ; preds = %96
  %100 = call zeroext i1 @errstart(i32 noundef 21, ptr noundef null)
  br i1 %100, label %101, label %107

101:                                              ; preds = %99, %97
  %102 = load ptr, ptr %14, align 8
  %103 = getelementptr inbounds nuw %struct.FormData_pg_class, ptr %102, i32 0, i32 1
  %104 = getelementptr inbounds nuw %struct.nameData, ptr %103, i32 0, i32 0
  %105 = getelementptr inbounds [64 x i8], ptr %104, i64 0, i64 0
  %106 = call i32 (ptr, ...) @errmsg_internal(ptr noundef @.str.53, ptr noundef %105)
  call void @errfinish(ptr noundef @.str.2, i32 noundef 18173, ptr noundef @__func__.AlterRelationNamespaceInternal)
  br label %107

107:                                              ; preds = %101, %99, %97
  unreachable

108:                                              ; No predecessors!
  br label %109

109:                                              ; preds = %108
  br label %110

110:                                              ; preds = %109, %89, %80
  call void @llvm.lifetime.end.p0(i64 6, ptr %17) #12
  br label %115

111:                                              ; preds = %48, %36
  %112 = load ptr, ptr %7, align 8
  %113 = load ptr, ptr %13, align 8
  %114 = getelementptr inbounds nuw %struct.HeapTupleData, ptr %113, i32 0, i32 1
  call void @UnlockTuple(ptr noundef %112, ptr noundef %114, i32 noundef 7)
  br label %115

115:                                              ; preds = %111, %110
  %116 = load i8, ptr %16, align 1, !range !6, !noundef !7
  %117 = trunc i8 %116 to i1
  br i1 %117, label %128, label %118

118:                                              ; preds = %115
  %119 = load ptr, ptr %12, align 8
  call void @add_exact_object_address(ptr noundef %15, ptr noundef %119)
  br label %120

120:                                              ; preds = %118
  %121 = load ptr, ptr @object_access_hook, align 8
  %122 = icmp ne ptr %121, null
  br i1 %122, label %123, label %125

123:                                              ; preds = %120
  %124 = load i32, ptr %8, align 4
  call void @RunObjectPostAlterHook(i32 noundef 1259, i32 noundef %124, i32 noundef 0, i32 noundef 0, i1 noundef zeroext false)
  br label %125

125:                                              ; preds = %123, %120
  br label %126

126:                                              ; preds = %125
  br label %127

127:                                              ; preds = %126
  br label %128

128:                                              ; preds = %127, %115
  %129 = load ptr, ptr %13, align 8
  call void @heap_freetuple(ptr noundef %129)
  call void @llvm.lifetime.end.p0(i64 1, ptr %16) #12
  call void @llvm.lifetime.end.p0(i64 12, ptr %15) #12
  call void @llvm.lifetime.end.p0(i64 8, ptr %14) #12
  call void @llvm.lifetime.end.p0(i64 8, ptr %13) #12
  ret void
}