; Function Attrs: nounwind uwtable
define dso_local void @AlterRelationNamespaceInternal(ptr noundef %0, i32 noundef %1, i32 noundef %2, i32 noundef %3, i1 noundef zeroext %4, ptr noundef %5) local_unnamed_addr #0 {
  %7 = alloca %struct.ObjectAddress, align 4
  %8 = alloca %struct.ItemPointerData, align 2
  call void @llvm.lifetime.start.p0(i64 12, ptr nonnull %7) #15
  %9 = zext i32 %1 to i64
  %10 = tail call ptr @SearchSysCacheLockedCopy1(i32 noundef 57, i64 noundef %9) #15
  %.not = icmp eq ptr %10, null
  br i1 %.not, label %11, label %14

11:                                               ; preds = %6
  %12 = tail call zeroext i1 @errstart_cold(i32 noundef 21, ptr noundef null) #16
  tail call void @llvm.assume(i1 %12)
  %13 = tail call i32 (ptr, ...) @errmsg_internal(ptr noundef nonnull @.str.23, i32 noundef %1) #15
  tail call void @errfinish(ptr noundef nonnull @.str.2, i32 noundef 18130, ptr noundef nonnull @__func__.AlterRelationNamespaceInternal) #15
  unreachable

14:                                               ; preds = %6
  %15 = getelementptr i8, ptr %10, i64 16
  %.val = load ptr, ptr %15, align 8
  %16 = getelementptr inbounds nuw i8, ptr %.val, i64 22
  %17 = load i8, ptr %16, align 2
  %18 = zext i8 %17 to i64
  %19 = getelementptr inbounds nuw i8, ptr %.val, i64 %18
  store i32 1259, ptr %7, align 4
  %20 = getelementptr inbounds nuw i8, ptr %7, i64 4
  store i32 %1, ptr %20, align 4
  %21 = getelementptr inbounds nuw i8, ptr %7, i64 8
  store i32 0, ptr %21, align 4
  %22 = call zeroext i1 @object_address_present(ptr noundef nonnull %7, ptr noundef %5) #15
  %.not31 = icmp eq i32 %2, %3
  %or.cond = or i1 %.not31, %22
  br i1 %or.cond, label %40, label %23

23:                                               ; preds = %14
  call void @llvm.lifetime.start.p0(i64 6, ptr nonnull %8) #15
  %24 = getelementptr inbounds nuw i8, ptr %10, i64 4
  call void @llvm.memcpy.p0.p0.i64(ptr noundef nonnull align 2 dereferenceable(6) %8, ptr noundef nonnull align 4 dereferenceable(6) %24, i64 6, i1 false)
  %25 = getelementptr inbounds nuw i8, ptr %19, i64 4
  %26 = call i32 @get_relname_relid(ptr noundef nonnull %25, i32 noundef %3) #15
  %.not32 = icmp eq i32 %26, 0
  br i1 %.not32, label %32, label %27

27:                                               ; preds = %23
  %28 = call zeroext i1 @errstart_cold(i32 noundef 21, ptr noundef null) #16
  call void @llvm.assume(i1 %28)
  %29 = call i32 @errcode(i32 noundef 117571716) #15
  %30 = call ptr @get_namespace_name(i32 noundef %3) #15
  %31 = call i32 (ptr, ...) @errmsg(ptr noundef nonnull @.str.52, ptr noundef nonnull %25, ptr noundef %30) #15
  call void @errfinish(ptr noundef nonnull @.str.2, i32 noundef 18156, ptr noundef nonnull @__func__.AlterRelationNamespaceInternal) #15
  unreachable

32:                                               ; preds = %23
  %33 = getelementptr inbounds nuw i8, ptr %19, i64 68
  store i32 %3, ptr %33, align 4
  call void @CatalogTupleUpdate(ptr noundef %0, ptr noundef nonnull %8, ptr noundef nonnull %10) #15
  call void @UnlockTuple(ptr noundef %0, ptr noundef nonnull %8, i32 noundef 7) #15
  br i1 %4, label %34, label %39

34:                                               ; preds = %32
  %35 = call i64 @changeDependencyFor(i32 noundef 1259, i32 noundef %1, i32 noundef 2615, i32 noundef %2, i32 noundef %3) #15
  %.not33 = icmp eq i64 %35, 1
  br i1 %.not33, label %39, label %36

36:                                               ; preds = %34
  %37 = call zeroext i1 @errstart_cold(i32 noundef 21, ptr noundef null) #16
  call void @llvm.assume(i1 %37)
  %38 = call i32 (ptr, ...) @errmsg_internal(ptr noundef nonnull @.str.53, ptr noundef nonnull %25) #15
  call void @errfinish(ptr noundef nonnull @.str.2, i32 noundef 18173, ptr noundef nonnull @__func__.AlterRelationNamespaceInternal) #15
  unreachable

39:                                               ; preds = %34, %32
  call void @llvm.lifetime.end.p0(i64 6, ptr nonnull %8) #15
  br label %42

40:                                               ; preds = %14
  %41 = getelementptr inbounds nuw i8, ptr %10, i64 4
  call void @UnlockTuple(ptr noundef %0, ptr noundef nonnull %41, i32 noundef 7) #15
  br label %42

42:                                               ; preds = %40, %39
  br i1 %22, label %46, label %43

43:                                               ; preds = %42
  call void @add_exact_object_address(ptr noundef nonnull %7, ptr noundef %5) #15
  %44 = load ptr, ptr @object_access_hook, align 8
  %.not34 = icmp eq ptr %44, null
  br i1 %.not34, label %46, label %45

45:                                               ; preds = %43
  call void @RunObjectPostAlterHook(i32 noundef 1259, i32 noundef %1, i32 noundef 0, i32 noundef 0, i1 noundef zeroext false) #15
  br label %46

46:                                               ; preds = %43, %45, %42
  call void @heap_freetuple(ptr noundef nonnull %10) #15
  call void @llvm.lifetime.end.p0(i64 12, ptr nonnull %7) #15
  ret void
}